; Function Attrs: mustprogress uwtable
define dso_local void @_ZN20cmCTestSubmitHandler10InitializeEv(ptr noundef nonnull align 8 dereferenceable(480) %0) unnamed_addr #3 align 2 personality ptr @__gxx_personality_v0 {
  %2 = getelementptr inbounds i8, ptr %0, i64 368
  tail call void @llvm.memset.p0.i64(ptr noundef nonnull align 8 dereferenceable(12) %2, i8 1, i64 12, i1 false)
  %3 = getelementptr inbounds i8, ptr %0, i64 380
  store i8 0, ptr %3, align 4
  %4 = getelementptr inbounds i8, ptr %0, i64 381
  store i8 0, ptr %4, align 1
  tail call void @_ZN21cmCTestGenericHandler10InitializeEv(ptr noundef nonnull align 8 dereferenceable(284) %0)
  %5 = getelementptr inbounds i8, ptr %0, i64 288
  tail call void @_ZNSt7__cxx1112basic_stringIcSt11char_traitsIcESaIcEE5clearEv(ptr noundef nonnull align 8 dereferenceable(32) %5) #20
  %6 = getelementptr inbounds i8, ptr %0, i64 320
  store i32 0, ptr %6, align 8
  %7 = getelementptr inbounds i8, ptr %0, i64 328
  tail call void @_ZNSt7__cxx1112basic_stringIcSt11char_traitsIcESaIcEE5clearEv(ptr noundef nonnull align 8 dereferenceable(32) %7) #20
  %8 = getelementptr inbounds i8, ptr %0, i64 360
  store ptr null, ptr %8, align 8
  %9 = getelementptr inbounds i8, ptr %0, i64 384
  %10 = getelementptr inbounds i8, ptr %0, i64 400
  %11 = load ptr, ptr %10, align 8
  invoke void @_ZNSt8_Rb_treeINSt7__cxx1112basic_stringIcSt11char_traitsIcESaIcEEES5_St9_IdentityIS5_ESt4lessIS5_ESaIS5_EE8_M_eraseEPSt13_Rb_tree_nodeIS5_E(ptr noundef nonnull align 8 dereferenceable(48) %9, ptr noundef %11)
          to label %_ZNSt3setINSt7__cxx1112basic_stringIcSt11char_traitsIcESaIcEEESt4lessIS5_ESaIS5_EE5clearEv.exit unwind label %12

12:                                               ; preds = %1
  %13 = landingpad { ptr, i32 }
          catch ptr null
  %14 = extractvalue { ptr, i32 } %13, 0
  tail call void @__clang_call_terminate(ptr %14) #22
  unreachable

_ZNSt3setINSt7__cxx1112basic_stringIcSt11char_traitsIcESaIcEEESt4lessIS5_ESaIS5_EE5clearEv.exit: ; preds = %1
  %15 = getelementptr inbounds i8, ptr %0, i64 392
  store ptr null, ptr %10, align 8
  %16 = getelementptr inbounds i8, ptr %0, i64 408
  store ptr %15, ptr %16, align 8
  %17 = getelementptr inbounds i8, ptr %0, i64 416
  store ptr %15, ptr %17, align 8
  %18 = getelementptr inbounds i8, ptr %0, i64 424
  store i64 0, ptr %18, align 8
  ret void
}